target datalayout = "e-m:e-p270:32:32-p271:32:32-p272:64:64-i64:64-i128:128-f80:128-n8:16:32:64-S128"
target triple = "x86_64-pc-linux-gnu"

%struct.ASN1_ITEM_st = type { i8, i64, ptr, i64, ptr, i64, ptr }

@.str.8 = private unnamed_addr constant [33 x i8] c"../openssl/crypto/asn1/x_int64.c\00", align 1
@__func__.uint64_c2i = private unnamed_addr constant [11 x i8] c"uint64_c2i\00", align 1

; Function Attrs: nounwind uwtable
define internal i32 @uint64_new(ptr noundef %0, ptr noundef %1) #0 {
  %3 = alloca i32, align 4
  %4 = alloca ptr, align 8
  %5 = alloca ptr, align 8
  store ptr %0, ptr %4, align 8, !tbaa !3
  store ptr %1, ptr %5, align 8, !tbaa !8
  %6 = call noalias ptr @CRYPTO_zalloc(i64 noundef 8, ptr noundef @.str.8, i32 noundef 31)
  %7 = load ptr, ptr %4, align 8, !tbaa !3
  store ptr %6, ptr %7, align 8, !tbaa !10
  %8 = icmp eq ptr %6, null
  br i1 %8, label %9, label %10

9:                                                ; preds = %2
  store i32 0, ptr %3, align 4
  br label %11

10:                                               ; preds = %2
  store i32 1, ptr %3, align 4
  br label %11

11:                                               ; preds = %10, %9
  %12 = load i32, ptr %3, align 4
  ret i32 %12
}

; Function Attrs: nounwind uwtable
define internal i32 @uint64_c2i(ptr noundef %0, ptr noundef %1, i32 noundef %2, i32 noundef %3, ptr noundef %4, ptr noundef %5) #0 {
  %7 = alloca i32, align 4
  %8 = alloca ptr, align 8
  %9 = alloca ptr, align 8
  %10 = alloca i32, align 4
  %11 = alloca i32, align 4
  %12 = alloca ptr, align 8
  %13 = alloca ptr, align 8
  %14 = alloca i64, align 8
  %15 = alloca ptr, align 8
  %16 = alloca i32, align 4
  %17 = alloca i32, align 4
  store ptr %0, ptr %8, align 8, !tbaa !3
  store ptr %1, ptr %9, align 8, !tbaa !16
  store i32 %2, ptr %10, align 4, !tbaa !14
  store i32 %3, ptr %11, align 4, !tbaa !14
  store ptr %4, ptr %12, align 8, !tbaa !16
  store ptr %5, ptr %13, align 8, !tbaa !8
  call void @llvm.lifetime.start.p0(i64 8, ptr %14) #4
  store i64 0, ptr %14, align 8, !tbaa !18
  call void @llvm.lifetime.start.p0(i64 8, ptr %15) #4
  call void @llvm.lifetime.start.p0(i64 4, ptr %16) #4
  store i32 0, ptr %16, align 4, !tbaa !14
  %18 = load ptr, ptr %8, align 8, !tbaa !3
  %19 = load ptr, ptr %18, align 8, !tbaa !10
  %20 = icmp eq ptr %19, null
  br i1 %20, label %21, label %27

21:                                               ; preds = %6
  %22 = load ptr, ptr %8, align 8, !tbaa !3
  %23 = load ptr, ptr %13, align 8, !tbaa !8
  %24 = call i32 @uint64_new(ptr noundef %22, ptr noundef %23)
  %25 = icmp ne i32 %24, 0
  br i1 %25, label %27, label %26

26:                                               ; preds = %21
  store i32 0, ptr %7, align 4
  store i32 1, ptr %17, align 4
  br label %71

27:                                               ; preds = %21, %6
  %28 = load ptr, ptr %8, align 8, !tbaa !3
  %29 = load ptr, ptr %28, align 8, !tbaa !10
  store ptr %29, ptr %15, align 8, !tbaa !16
  %30 = load i32, ptr %10, align 4, !tbaa !14
  %31 = icmp eq i32 %30, 0
  br i1 %31, label %32, label %33

32:                                               ; preds = %27
  br label %69

33:                                               ; preds = %27
  %34 = load i32, ptr %10, align 4, !tbaa !14
  %35 = sext i32 %34 to i64
  %36 = call i32 @ossl_c2i_uint64_int(ptr noundef %14, ptr noundef %16, ptr noundef %9, i64 noundef %35)
  %37 = icmp ne i32 %36, 0
  br i1 %37, label %39, label %38

38:                                               ; preds = %33
  store i32 0, ptr %7, align 4
  store i32 1, ptr %17, align 4
  br label %71

39:                                               ; preds = %33
  %40 = load ptr, ptr %13, align 8, !tbaa !8
  %41 = getelementptr inbounds nuw %struct.ASN1_ITEM_st, ptr %40, i32 0, i32 5
  %42 = load i64, ptr %41, align 8, !tbaa !20
  %43 = and i64 %42, 2
  %44 = icmp eq i64 %43, 0
  br i1 %44, label %45, label %49

45:                                               ; preds = %39
  %46 = load i32, ptr %16, align 4, !tbaa !14
  %47 = icmp ne i32 %46, 0
  br i1 %47, label %48, label %49

48:                                               ; preds = %45
  call void @ERR_new()
  call void @ERR_set_debug(ptr noundef @.str.8, i32 noundef 95, ptr noundef @__func__.uint64_c2i)
  call void (i32, i32, ptr, ...) @ERR_set_error(i32 noundef 13, i32 noundef 226, ptr noundef null)
  store i32 0, ptr %7, align 4
  store i32 1, ptr %17, align 4
  br label %71

49:                                               ; preds = %45, %39
  %50 = load ptr, ptr %13, align 8, !tbaa !8
  %51 = getelementptr inbounds nuw %struct.ASN1_ITEM_st, ptr %50, i32 0, i32 5
  %52 = load i64, ptr %51, align 8, !tbaa !20
  %53 = and i64 %52, 2
  %54 = icmp eq i64 %53, 2
  br i1 %54, label %55, label %62

55:                                               ; preds = %49
  %56 = load i32, ptr %16, align 4, !tbaa !14
  %57 = icmp ne i32 %56, 0
  br i1 %57, label %62, label %58

58:                                               ; preds = %55
  %59 = load i64, ptr %14, align 8, !tbaa !18
  %60 = icmp ugt i64 %59, 9223372036854775807
  br i1 %60, label %61, label %62

61:                                               ; preds = %58
  call void @ERR_new()
  call void @ERR_set_debug(ptr noundef @.str.8, i32 noundef 100, ptr noundef @__func__.uint64_c2i)
  call void (i32, i32, ptr, ...) @ERR_set_error(i32 noundef 13, i32 noundef 223, ptr noundef null)
  store i32 0, ptr %7, align 4
  store i32 1, ptr %17, align 4
  br label %71

62:                                               ; preds = %58, %55, %49
  %63 = load i32, ptr %16, align 4, !tbaa !14
  %64 = icmp ne i32 %63, 0
  br i1 %64, label %65, label %68

65:                                               ; preds = %62
  %66 = load i64, ptr %14, align 8, !tbaa !18
  %67 = sub i64 0, %66
  store i64 %67, ptr %14, align 8, !tbaa !18
  br label %68

68:                                               ; preds = %65, %62
  br label %69

69:                                               ; preds = %68, %32
  %70 = load ptr, ptr %15, align 8, !tbaa !16
  call void @llvm.memcpy.p0.p0.i64(ptr align 1 %70, ptr align 8 %14, i64 8, i1 false)
  store i32 1, ptr %7, align 4
  store i32 1, ptr %17, align 4
  br label %71

71:                                               ; preds = %69, %61, %48, %38, %26
  call void @llvm.lifetime.end.p0(i64 4, ptr %16) #4
  call void @llvm.lifetime.end.p0(i64 8, ptr %15) #4
  call void @llvm.lifetime.end.p0(i64 8, ptr %14) #4
  %72 = load i32, ptr %7, align 4
  ret i32 %72
}