; Function Attrs: nounwind uwtable
define internal range(i32 0, 2) i32 @uint64_c2i(ptr noundef captures(none) %0, ptr noundef %1, i32 noundef %2, i32 %3, ptr readnone captures(none) %4, ptr noundef readonly captures(none) %5) #1 {
  %7 = alloca ptr, align 8
  %8 = alloca i64, align 8
  %9 = alloca i32, align 4
  store ptr %1, ptr %7, align 8, !tbaa !12
  call void @llvm.lifetime.start.p0(i64 8, ptr nonnull %8) #5
  store i64 0, ptr %8, align 8, !tbaa !14
  call void @llvm.lifetime.start.p0(i64 4, ptr nonnull %9) #5
  store i32 0, ptr %9, align 4, !tbaa !10
  %10 = load ptr, ptr %0, align 8, !tbaa !3
  %11 = icmp eq ptr %10, null
  br i1 %11, label %12, label %14

12:                                               ; preds = %6
  %13 = tail call noalias ptr @CRYPTO_zalloc(i64 noundef 8, ptr noundef nonnull @.str.8, i32 noundef 31) #5
  store ptr %13, ptr %0, align 8, !tbaa !3
  %.not17 = icmp eq ptr %13, null
  br i1 %.not17, label %36, label %14

14:                                               ; preds = %12, %6
  %15 = phi ptr [ %13, %12 ], [ %10, %6 ]
  %16 = icmp eq i32 %2, 0
  br i1 %16, label %34, label %17

17:                                               ; preds = %14
  %18 = sext i32 %2 to i64
  %19 = call i32 @ossl_c2i_uint64_int(ptr noundef nonnull %8, ptr noundef nonnull %9, ptr noundef nonnull %7, i64 noundef %18) #5
  %.not15 = icmp eq i32 %19, 0
  br i1 %.not15, label %36, label %20

20:                                               ; preds = %17
  %21 = getelementptr inbounds nuw i8, ptr %5, i64 40
  %22 = load i64, ptr %21, align 8, !tbaa !16
  %23 = and i64 %22, 2
  %24 = icmp eq i64 %23, 0
  %25 = load i32, ptr %9, align 4
  %26 = icmp ne i32 %25, 0
  %or.cond = select i1 %24, i1 %26, i1 false
  br i1 %or.cond, label %27, label %28

27:                                               ; preds = %20
  call void @ERR_new() #5
  call void @ERR_set_debug(ptr noundef nonnull @.str.8, i32 noundef 95, ptr noundef nonnull @__func__.uint64_c2i) #5
  call void (i32, i32, ptr, ...) @ERR_set_error(i32 noundef 13, i32 noundef 226, ptr noundef null) #5
  br label %36

28:                                               ; preds = %20
  %or.cond3 = select i1 %24, i1 true, i1 %26
  %29 = load i64, ptr %8, align 8
  %30 = icmp sgt i64 %29, -1
  %or.cond5.not = select i1 %or.cond3, i1 true, i1 %30
  br i1 %or.cond5.not, label %32, label %31

31:                                               ; preds = %28
  call void @ERR_new() #5
  call void @ERR_set_debug(ptr noundef nonnull @.str.8, i32 noundef 100, ptr noundef nonnull @__func__.uint64_c2i) #5
  call void (i32, i32, ptr, ...) @ERR_set_error(i32 noundef 13, i32 noundef 223, ptr noundef null) #5
  br label %36

32:                                               ; preds = %28
  %33 = sub i64 0, %29
  %spec.select = select i1 %26, i64 %33, i64 %29
  br label %34

34:                                               ; preds = %32, %14
  %35 = phi i64 [ 0, %14 ], [ %spec.select, %32 ]
  store i64 %35, ptr %15, align 1
  br label %36

36:                                               ; preds = %17, %12, %34, %31, %27
  %.0 = phi i32 [ 1, %34 ], [ 0, %27 ], [ 0, %31 ], [ 0, %12 ], [ 0, %17 ]
  call void @llvm.lifetime.end.p0(i64 4, ptr nonnull %9) #5
  call void @llvm.lifetime.end.p0(i64 8, ptr nonnull %8) #5
  ret i32 %.0
}